; Function Attrs: mustprogress uwtable
define void @_ZNK6casadi11GetNonzeros7mappingEv(ptr dead_on_unwind noalias writable sret(%"class.casadi::Matrix.33") align 8 %0, ptr noundef nonnull align 8 dereferenceable(64) %1) unnamed_addr #3 align 2 personality ptr @__gxx_personality_v0 {
  %3 = alloca %"class.std::vector", align 8
  %4 = load ptr, ptr %1, align 8
  %5 = getelementptr inbounds i8, ptr %4, i64 848
  %6 = load ptr, ptr %5, align 8
  call void %6(ptr dead_on_unwind nonnull writable sret(%"class.std::vector") align 8 %3, ptr noundef nonnull align 8 dereferenceable(64) %1)
  %7 = getelementptr inbounds i8, ptr %1, i64 56
  invoke void @_ZN6casadi6MatrixIxEC1ERKNS_8SparsityERKSt6vectorIxSaIxEEb(ptr noundef nonnull align 8 dereferenceable(40) %0, ptr noundef nonnull align 8 dereferenceable(8) %7, ptr noundef nonnull align 8 dereferenceable(24) %3, i1 noundef zeroext false)
          to label %8 unwind label %11

8:                                                ; preds = %2
  %9 = load ptr, ptr %3, align 8
  %.not.i.i.i = icmp eq ptr %9, null
  br i1 %.not.i.i.i, label %_ZNSt6vectorIxSaIxEED2Ev.exit, label %10

10:                                               ; preds = %8
  call void @_ZdlPv(ptr noundef nonnull %9) #23
  br label %_ZNSt6vectorIxSaIxEED2Ev.exit

_ZNSt6vectorIxSaIxEED2Ev.exit:                    ; preds = %8, %10
  ret void

11:                                               ; preds = %2
  %12 = landingpad { ptr, i32 }
          cleanup
  %13 = load ptr, ptr %3, align 8
  %.not.i.i.i2 = icmp eq ptr %13, null
  br i1 %.not.i.i.i2, label %_ZNSt6vectorIxSaIxEED2Ev.exit3, label %14

14:                                               ; preds = %11
  call void @_ZdlPv(ptr noundef nonnull %13) #23
  br label %_ZNSt6vectorIxSaIxEED2Ev.exit3

_ZNSt6vectorIxSaIxEED2Ev.exit3:                   ; preds = %11, %14
  resume { ptr, i32 } %12
}